(lp0
(i__main__
post
p1
(dp2
S'date'
p3
S'10-29-1980'
p4
sS'text'
p5
S'new text woo'
p6
sba(i__main__
post
p7
(dp8
S'date'
p9
S'10-29-1980'
p10
sS'text'
p11
S'new text woo'
p12
sba(i__main__
post
p13
(dp14
S'date'
p15
S'10-29-1980'
p16
sS'text'
p17
S'new text woo'
p18
sba(i__main__
post
p19
(dp20
S'date'
p21
S'10-29-1980'
p22
sS'text'
p23
S'new text woo'
p24
sba(i__main__
post
p25
(dp26
S'date'
p27
S'10-29-1980'
p28
sS'text'
p29
S'new text woo'
p30
sba(i__main__
post
p31
(dp32
S'date'
p33
S'10-29-1980'
p34
sS'text'
p35
S'new text woo'
p36
sba(i__main__
post
p37
(dp38
S'date'
p39
S'10-29-1980'
p40
sS'text'
p41
S'new text woo'
p42
sba(i__main__
post
p43
(dp44
S'date'
p45
S'10-29-1980'
p46
sS'text'
p47
S'new text woo'
p48
sba(i__main__
post
p49
(dp50
S'date'
p51
S'10-29-1980'
p52
sS'text'
p53
S'new text woo'
p54
sba(i__main__
post
p55
(dp56
S'date'
p57
S'10-29-1980'
p58
sS'text'
p59
S'new text woo'
p60
sba(i__main__
post
p61
(dp62
S'date'
p63
S'10-29-1980'
p64
sS'text'
p65
S'new text woo'
p66
sba(i__main__
post
p67
(dp68
S'date'
p69
S'10-29-1980'
p70
sS'text'
p71
S'new text woo'
p72
sba(i__main__
post
p73
(dp74
S'date'
p75
S'10-29-1980'
p76
sS'text'
p77
S'new text woo'
p78
sba(i__main__
post
p79
(dp80
S'date'
p81
S'10-29-1980'
p82
sS'text'
p83
S'new text woo'
p84
sba(i__main__
post
p85
(dp86
S'date'
p87
S'10-29-1980'
p88
sS'text'
p89
S'new text woo'
p90
sba(i__main__
post
p91
(dp92
S'date'
p93
S'10-29-1980'
p94
sS'text'
p95
S'new text woo'
p96
sba(i__main__
post
p97
(dp98
S'date'
p99
S'10-29-1980'
p100
sS'text'
p101
S'new text woo'
p102
sba(i__main__
post
p103
(dp104
S'date'
p105
S'10-29-1980'
p106
sS'text'
p107
S'new text woo'
p108
sba(i__main__
post
p109
(dp110
S'date'
p111
S'10-29-1980'
p112
sS'text'
p113
S'new text woo'
p114
sba(i__main__
post
p115
(dp116
S'date'
p117
S'10-29-1980'
p118
sS'text'
p119
S'new text woo'
p120
sba(i__main__
post
p121
(dp122
S'date'
p123
S'10-29-1980'
p124
sS'text'
p125
S'new text woo'
p126
sba(i__main__
post
p127
(dp128
S'date'
p129
S'10-29-1980'
p130
sS'text'
p131
S'new text woo'
p132
sba(i__main__
post
p133
(dp134
S'date'
p135
S'10-29-1980'
p136
sS'text'
p137
S'new text woo'
p138
sba(i__main__
post
p139
(dp140
S'date'
p141
S'10-29-1980'
p142
sS'text'
p143
S'new text woo'
p144
sba(i__main__
post
p145
(dp146
S'date'
p147
S'10-29-1980'
p148
sS'text'
p149
S'new text woo'
p150
sba(i__main__
post
p151
(dp152
S'date'
p153
S'10-29-1980'
p154
sS'text'
p155
S'new text woo'
p156
sba(i__main__
post
p157
(dp158
S'date'
p159
S'10-29-1980'
p160
sS'text'
p161
S'new text woo'
p162
sba(i__main__
post
p163
(dp164
S'date'
p165
S'10-29-1980'
p166
sS'text'
p167
S'new text woo'
p168
sba(i__main__
post
p169
(dp170
S'date'
p171
S'10-29-1980'
p172
sS'text'
p173
S'new text woo'
p174
sba(i__main__
post
p175
(dp176
S'date'
p177
S'10-29-1980'
p178
sS'text'
p179
S'new text woo'
p180
sba(i__main__
post
p181
(dp182
S'date'
p183
S'10-29-1980'
p184
sS'text'
p185
S'new text woo'
p186
sba(i__main__
post
p187
(dp188
S'date'
p189
S'10-29-1980'
p190
sS'text'
p191
S'new text woo'
p192
sba(i__main__
post
p193
(dp194
S'date'
p195
S'10-29-1980'
p196
sS'text'
p197
S'new text woo'
p198
sba(i__main__
post
p199
(dp200
S'date'
p201
S'10-29-1980'
p202
sS'text'
p203
S'new text woo'
p204
sba(i__main__
post
p205
(dp206
S'date'
p207
S'10-29-1980'
p208
sS'text'
p209
S'new text woo'
p210
sba(i__main__
post
p211
(dp212
S'date'
p213
S'10-29-1980'
p214
sS'text'
p215
S'new text woo'
p216
sba(i__main__
post
p217
(dp218
S'date'
p219
S'10-29-1980'
p220
sS'text'
p221
S'new text woo'
p222
sba(i__main__
post
p223
(dp224
S'date'
p225
S'10-29-1980'
p226
sS'text'
p227
S'new text woo'
p228
sba(i__main__
post
p229
(dp230
S'date'
p231
S'10-29-1980'
p232
sS'text'
p233
S'new text woo'
p234
sba(i__main__
post
p235
(dp236
S'date'
p237
S'10-29-1980'
p238
sS'text'
p239
S'new text woo'
p240
sba(i__main__
post
p241
(dp242
S'date'
p243
S'10-29-1980'
p244
sS'text'
p245
S'new text woo'
p246
sba(i__main__
post
p247
(dp248
S'date'
p249
S'10-29-1980'
p250
sS'text'
p251
S'new text woo'
p252
sba(i__main__
post
p253
(dp254
S'date'
p255
S'10-29-1980'
p256
sS'text'
p257
S'new text woo'
p258
sba(i__main__
post
p259
(dp260
S'date'
p261
S'10-29-1980'
p262
sS'text'
p263
S'new text woo'
p264
sba(i__main__
post
p265
(dp266
S'date'
p267
S'10-29-1980'
p268
sS'text'
p269
S'new text woo'
p270
sba(i__main__
post
p271
(dp272
S'date'
p273
S'10-29-1980'
p274
sS'text'
p275
S'new text woo'
p276
sba(i__main__
post
p277
(dp278
S'date'
p279
S'10-29-1980'
p280
sS'text'
p281
S'new text woo'
p282
sba(i__main__
post
p283
(dp284
S'date'
p285
S'10-29-1980'
p286
sS'text'
p287
S'new text woo'
p288
sba(i__main__
post
p289
(dp290
S'date'
p291
S'10-29-1980'
p292
sS'text'
p293
S'new text woo'
p294
sba(i__main__
post
p295
(dp296
S'date'
p297
S'10-29-1980'
p298
sS'text'
p299
S'new text woo'
p300
sba(i__main__
post
p301
(dp302
S'date'
p303
S'10-29-1980'
p304
sS'text'
p305
S'new text woo'
p306
sba(i__main__
post
p307
(dp308
S'date'
p309
S'10-29-1980'
p310
sS'text'
p311
S'new text woo'
p312
sba(i__main__
post
p313
(dp314
S'date'
p315
S'10-29-1980'
p316
sS'text'
p317
S'new text woo'
p318
sba(i__main__
post
p319
(dp320
S'date'
p321
S'10-29-1980'
p322
sS'text'
p323
S'new text woo'
p324
sba(i__main__
post
p325
(dp326
S'date'
p327
S'10-29-1980'
p328
sS'text'
p329
S'new text woo'
p330
sba(i__main__
post
p331
(dp332
S'date'
p333
S'10-29-1980'
p334
sS'text'
p335
S'new text woo'
p336
sba(i__main__
post
p337
(dp338
S'date'
p339
S'10-29-1980'
p340
sS'text'
p341
S'new text woo'
p342
sba(i__main__
post
p343
(dp344
S'date'
p345
S'10-29-1980'
p346
sS'text'
p347
S'new text woo'
p348
sba(i__main__
post
p349
(dp350
S'date'
p351
S'10-29-1980'
p352
sS'text'
p353
S'new text woo'
p354
sba(i__main__
post
p355
(dp356
S'date'
p357
S'10-29-1980'
p358
sS'text'
p359
S'new text woo'
p360
sba(i__main__
post
p361
(dp362
S'date'
p363
S'10-29-1980'
p364
sS'text'
p365
S'new text woo'
p366
sba(i__main__
post
p367
(dp368
S'date'
p369
S'10-29-1980'
p370
sS'text'
p371
S'new text woo'
p372
sba(i__main__
post
p373
(dp374
S'date'
p375
S'10-29-1980'
p376
sS'text'
p377
S'new text woo'
p378
sba(i__main__
post
p379
(dp380
S'date'
p381
S'10-29-1980'
p382
sS'text'
p383
S'new text woo'
p384
sba(i__main__
post
p385
(dp386
S'date'
p387
S'10-29-1980'
p388
sS'text'
p389
S'new text woo'
p390
sba(i__main__
post
p391
(dp392
S'date'
p393
S'10-29-1980'
p394
sS'text'
p395
S'new text woo'
p396
sba(i__main__
post
p397
(dp398
S'date'
p399
S'10-29-1980'
p400
sS'text'
p401
S'new text woo'
p402
sba(i__main__
post
p403
(dp404
S'date'
p405
S'10-29-1980'
p406
sS'text'
p407
S'new text woo'
p408
sba(i__main__
post
p409
(dp410
S'date'
p411
S'10-29-1980'
p412
sS'text'
p413
S'new text woo'
p414
sba(i__main__
post
p415
(dp416
S'date'
p417
S'10-29-1980'
p418
sS'text'
p419
S'new text woo'
p420
sba(i__main__
post
p421
(dp422
S'date'
p423
S'10-29-1980'
p424
sS'text'
p425
S'new text woo'
p426
sba(i__main__
post
p427
(dp428
S'date'
p429
S'10-29-1980'
p430
sS'text'
p431
S'new text woo'
p432
sba(i__main__
post
p433
(dp434
S'date'
p435
S'10-29-1980'
p436
sS'text'
p437
S'new text woo'
p438
sba(i__main__
post
p439
(dp440
S'date'
p441
S'10-29-1980'
p442
sS'text'
p443
S'new text woo'
p444
sba(i__main__
post
p445
(dp446
S'date'
p447
S'10-29-1980'
p448
sS'text'
p449
S'new text woo'
p450
sba(i__main__
post
p451
(dp452
S'date'
p453
S'10-29-1980'
p454
sS'text'
p455
S'new text woo'
p456
sba(i__main__
post
p457
(dp458
S'date'
p459
S'10-29-1980'
p460
sS'text'
p461
S'new text woo'
p462
sba(i__main__
post
p463
(dp464
S'date'
p465
S'10-29-1980'
p466
sS'text'
p467
S'new text woo'
p468
sba(i__main__
post
p469
(dp470
S'date'
p471
S'10-29-1980'
p472
sS'text'
p473
S'new text woo'
p474
sba(i__main__
post
p475
(dp476
S'date'
p477
S'10-29-1980'
p478
sS'text'
p479
S'new text woo'
p480
sba(i__main__
post
p481
(dp482
S'date'
p483
S'10-29-1980'
p484
sS'text'
p485
S'new text woo'
p486
sba(i__main__
post
p487
(dp488
S'date'
p489
S'10-29-1980'
p490
sS'text'
p491
S'new text woo'
p492
sba(i__main__
post
p493
(dp494
S'date'
p495
S'10-29-1980'
p496
sS'text'
p497
S'new text woo'
p498
sba(i__main__
post
p499
(dp500
S'date'
p501
S'10-29-1980'
p502
sS'text'
p503
S'new text woo'
p504
sba(i__main__
post
p505
(dp506
S'date'
p507
S'10-29-1980'
p508
sS'text'
p509
S'new text woo'
p510
sba(i__main__
post
p511
(dp512
S'date'
p513
S'10-29-1980'
p514
sS'text'
p515
S'new text woo'
p516
sba(i__main__
post
p517
(dp518
S'date'
p519
S'10-29-1980'
p520
sS'text'
p521
S'new text woo'
p522
sba(i__main__
post
p523
(dp524
g519
S'111'
p525
sg521
S'something\r\n'
p526
sba.