(lp0
(ilogweb
airplane
p1
(dp2
S'cplx'
p3
I01
sS'hp'
p4
I01
sS'cls'
p5
S'ASES'
p6
sS'typ'
p7
S'C182 Amphib'
p8
sS'eng'
p9
I1
sba(ilogweb
airplane
p10
(dp11
g3
I01
sg4
I01
sg5
S'AMEL'
p12
sg7
S'AC50'
p13
sg9
I2
sba(ilogweb
airplane
p14
(dp15
g3
I00
sg4
I00
sg5
S'ASEL'
p16
sg7
S'PA-28-161'
p17
sg9
I1
sba(ilogweb
airplane
p18
(dp19
g3
I01
sg4
I00
sg5
g16
sg7
S'C172-RG'
p20
sg9
I1
sba(ilogweb
airplane
p21
(dp22
g3
I00
sg4
I00
sg5
g16
sg7
S'PA-38'
p23
sg9
I1
sba(ilogweb
airplane
p24
(dp25
g3
I00
sg4
I00
sg5
g16
sg7
S'C152'
p26
sg9
I1
sba(ilogweb
airplane
p27
(dp28
g3
I01
sg4
I00
sg5
g12
sg7
S'DA-42'
p29
sg9
I2
sba(ilogweb
airplane
p30
(dp31
g3
I00
sg4
I00
sg5
g16
sg7
S'C172'
p32
sg9
I1
sba(ilogweb
airplane
p33
(dp34
g3
I01
sg4
I00
sg5
g16
sg7
S'M205-201'
p35
sg9
I1
sba(ilogweb
airplane
p36
(dp37
g3
I01
sg4
I00
sg5
g16
sg7
S'PA-28-R-201'
p38
sg9
I1
sba(ilogweb
airplane
p39
(dp40
g3
I01
sg4
I00
sg5
g12
sg7
S'BE-95'
p41
sg9
I2
sba(ilogweb
airplane
p42
(dp43
g3
I00
sg4
I00
sg5
g16
sg7
S'DA-20'
p44
sg9
I1
sba(ilogweb
airplane
p45
(dp46
g3
I01
sg4
I00
sg5
g12
sg7
S'PA-44-180'
p47
sg9
I2
sba(ilogweb
airplane
p48
(dp49
g3
I00
sg4
I00
sg5
g16
sg7
S'PA-28-181'
p50
sg9
I1
sba(ilogweb
airplane
p51
(dp52
g3
I01
sg4
I00
sg5
g16
sg7
S'M20C-180'
p53
sg9
I1
sba.